; Function Attrs: mustprogress nofree norecurse nosync nounwind willreturn memory(argmem: read) uwtable
define noundef i64 @_ZN12duckdb_miniz23mz_zip_get_archive_sizeEPNS_14mz_zip_archiveE(ptr noundef readonly captures(address_is_null) %0) local_unnamed_addr #0 {
  %.not = icmp eq ptr %0, null
  br i1 %.not, label %4, label %2

2:                                                ; preds = %1
  %3 = load i64, ptr %0, align 8, !tbaa !227
  br label %4

4:                                                ; preds = %1, %2
  %.0 = phi i64 [ %3, %2 ], [ 0, %1 ]
  ret i64 %.0
}